target datalayout = "e-m:e-p270:32:32-p271:32:32-p272:64:64-i64:64-i128:128-f80:128-n8:16:32:64-S128"
target triple = "x86_64-pc-linux-gnu"

%"class.ozz::options::Option" = type { ptr, ptr, ptr, i8, i8, ptr }

; Function Attrs: mustprogress uwtable
define dso_local void @_ZN3ozz7options6Option14RestoreDefaultEv(ptr noundef nonnull align 8 dereferenceable(40) %0) #4 align 2 {
  %2 = alloca ptr, align 8
  store ptr %0, ptr %2, align 8, !tbaa !26
  %3 = load ptr, ptr %2, align 8
  %4 = getelementptr inbounds nuw %"class.ozz::options::Option", ptr %3, i32 0, i32 4
  store i8 0, ptr %4, align 1, !tbaa !67
  %5 = load ptr, ptr %3, align 8, !tbaa !16
  %6 = getelementptr inbounds ptr, ptr %5, i64 5
  %7 = load ptr, ptr %6, align 8
  call void %7(ptr noundef nonnull align 8 dereferenceable(40) %3)
  ret void
}