; Function Attrs: mustprogress uwtable
define dso_local void @_ZN3ozz7options6Option14RestoreDefaultEv(ptr noundef nonnull align 8 dereferenceable(40) initializes((25, 26)) %0) local_unnamed_addr #3 align 2 {
  %2 = getelementptr inbounds nuw i8, ptr %0, i64 25
  store i8 0, ptr %2, align 1, !tbaa !13
  %3 = load ptr, ptr %0, align 8, !tbaa !18
  %4 = getelementptr inbounds nuw i8, ptr %3, i64 40
  %5 = load ptr, ptr %4, align 8
  tail call void %5(ptr noundef nonnull align 8 dereferenceable(40) %0)
  ret void
}